; Function Attrs: mustprogress nofree nounwind willreturn memory(read) uwtable
define noundef zeroext i1 @_Z10IsWildcardPKw(ptr noundef readonly %0) local_unnamed_addr #5 {
  %2 = icmp eq ptr %0, null
  br i1 %2, label %6, label %3

3:                                                ; preds = %1
  %4 = tail call ptr @wcspbrk(ptr noundef nonnull %0, ptr noundef nonnull @.str.2) #18
  %5 = icmp ne ptr %4, null
  br label %6

6:                                                ; preds = %1, %3
  %.0 = phi i1 [ %5, %3 ], [ false, %1 ]
  ret i1 %.0
}